target datalayout = "e-m:e-p270:32:32-p271:32:32-p272:64:64-i64:64-i128:128-f80:128-n8:16:32:64-S128"
target triple = "x86_64-pc-linux-gnu"

%struct.Complex = type { double, double }
%struct.Qureg = type { i32, i32, i32, i64, i64, i32, i32, %struct.ComplexArray, %struct.ComplexArray, %struct.ComplexArray, ptr, ptr, ptr, ptr, ptr, ptr }
%struct.ComplexArray = type { ptr, ptr }

; Function Attrs: nounwind uwtable
define void @statevec_pauliZ(ptr noundef byval(%struct.Qureg) align 8 %0, i32 noundef %1) #0 {
  %3 = alloca i32, align 4
  %4 = alloca %struct.Complex, align 8
  store i32 %1, ptr %3, align 4, !tbaa !9
  call void @llvm.lifetime.start.p0(i64 16, ptr %4) #8
  %5 = getelementptr inbounds nuw %struct.Complex, ptr %4, i32 0, i32 0
  store double -1.000000e+00, ptr %5, align 8, !tbaa !19
  %6 = getelementptr inbounds nuw %struct.Complex, ptr %4, i32 0, i32 1
  store double 0.000000e+00, ptr %6, align 8, !tbaa !21
  %7 = load i32, ptr %3, align 4, !tbaa !9
  %8 = getelementptr inbounds nuw { double, double }, ptr %4, i32 0, i32 0
  %9 = load double, ptr %8, align 8
  %10 = getelementptr inbounds nuw { double, double }, ptr %4, i32 0, i32 1
  %11 = load double, ptr %10, align 8
  call void @statevec_phaseShiftByTerm(ptr noundef byval(%struct.Qureg) align 8 %0, i32 noundef %7, double %9, double %11)
  call void @llvm.lifetime.end.p0(i64 16, ptr %4) #8
  ret void
}

; Function Attrs: nounwind uwtable
define void @statevec_applyPauliProd(ptr noundef byval(%struct.Qureg) align 8 %0, ptr noundef %1, ptr noundef %2, i32 noundef %3) #0 {
  %5 = alloca ptr, align 8
  %6 = alloca ptr, align 8
  %7 = alloca i32, align 4
  %8 = alloca i32, align 4
  store ptr %1, ptr %5, align 8, !tbaa !4
  store ptr %2, ptr %6, align 8, !tbaa !52
  store i32 %3, ptr %7, align 4, !tbaa !9
  call void @llvm.lifetime.start.p0(i64 4, ptr %8) #8
  store i32 0, ptr %8, align 4, !tbaa !9
  br label %9

9:                                                ; preds = %54, %4
  %10 = load i32, ptr %8, align 4, !tbaa !9
  %11 = load i32, ptr %7, align 4, !tbaa !9
  %12 = icmp slt i32 %10, %11
  br i1 %12, label %14, label %13

13:                                               ; preds = %9
  call void @llvm.lifetime.end.p0(i64 4, ptr %8) #8
  br label %57

14:                                               ; preds = %9
  %15 = load ptr, ptr %6, align 8, !tbaa !52
  %16 = load i32, ptr %8, align 4, !tbaa !9
  %17 = sext i32 %16 to i64
  %18 = getelementptr inbounds i32, ptr %15, i64 %17
  %19 = load i32, ptr %18, align 4, !tbaa !9
  %20 = icmp eq i32 %19, 1
  br i1 %20, label %21, label %27

21:                                               ; preds = %14
  %22 = load ptr, ptr %5, align 8, !tbaa !4
  %23 = load i32, ptr %8, align 4, !tbaa !9
  %24 = sext i32 %23 to i64
  %25 = getelementptr inbounds i32, ptr %22, i64 %24
  %26 = load i32, ptr %25, align 4, !tbaa !9
  call void @statevec_pauliX(ptr noundef byval(%struct.Qureg) align 8 %0, i32 noundef %26)
  br label %27

27:                                               ; preds = %21, %14
  %28 = load ptr, ptr %6, align 8, !tbaa !52
  %29 = load i32, ptr %8, align 4, !tbaa !9
  %30 = sext i32 %29 to i64
  %31 = getelementptr inbounds i32, ptr %28, i64 %30
  %32 = load i32, ptr %31, align 4, !tbaa !9
  %33 = icmp eq i32 %32, 2
  br i1 %33, label %34, label %40

34:                                               ; preds = %27
  %35 = load ptr, ptr %5, align 8, !tbaa !4
  %36 = load i32, ptr %8, align 4, !tbaa !9
  %37 = sext i32 %36 to i64
  %38 = getelementptr inbounds i32, ptr %35, i64 %37
  %39 = load i32, ptr %38, align 4, !tbaa !9
  call void @statevec_pauliY(ptr noundef byval(%struct.Qureg) align 8 %0, i32 noundef %39)
  br label %40

40:                                               ; preds = %34, %27
  %41 = load ptr, ptr %6, align 8, !tbaa !52
  %42 = load i32, ptr %8, align 4, !tbaa !9
  %43 = sext i32 %42 to i64
  %44 = getelementptr inbounds i32, ptr %41, i64 %43
  %45 = load i32, ptr %44, align 4, !tbaa !9
  %46 = icmp eq i32 %45, 3
  br i1 %46, label %47, label %53

47:                                               ; preds = %40
  %48 = load ptr, ptr %5, align 8, !tbaa !4
  %49 = load i32, ptr %8, align 4, !tbaa !9
  %50 = sext i32 %49 to i64
  %51 = getelementptr inbounds i32, ptr %48, i64 %50
  %52 = load i32, ptr %51, align 4, !tbaa !9
  call void @statevec_pauliZ(ptr noundef byval(%struct.Qureg) align 8 %0, i32 noundef %52)
  br label %53

53:                                               ; preds = %47, %40
  br label %54

54:                                               ; preds = %53
  %55 = load i32, ptr %8, align 4, !tbaa !9
  %56 = add nsw i32 %55, 1
  store i32 %56, ptr %8, align 4, !tbaa !9
  br label %9

57:                                               ; preds = %13
  ret void
}

; Function Attrs: nounwind uwtable
define double @statevec_calcExpecPauliProd(ptr noundef byval(%struct.Qureg) align 8 %0, ptr noundef %1, ptr noundef %2, i32 noundef %3, ptr noundef byval(%struct.Qureg) align 8 %4) #0 {
  %6 = alloca ptr, align 8
  %7 = alloca ptr, align 8
  %8 = alloca i32, align 4
  %9 = alloca double, align 8
  %10 = alloca %struct.Complex, align 8
  store ptr %1, ptr %6, align 8, !tbaa !4
  store ptr %2, ptr %7, align 8, !tbaa !52
  store i32 %3, ptr %8, align 4, !tbaa !9
  call void @statevec_cloneQureg(ptr noundef byval(%struct.Qureg) align 8 %4, ptr noundef byval(%struct.Qureg) align 8 %0)
  %11 = load ptr, ptr %6, align 8, !tbaa !4
  %12 = load ptr, ptr %7, align 8, !tbaa !52
  %13 = load i32, ptr %8, align 4, !tbaa !9
  call void @statevec_applyPauliProd(ptr noundef byval(%struct.Qureg) align 8 %4, ptr noundef %11, ptr noundef %12, i32 noundef %13)
  call void @llvm.lifetime.start.p0(i64 8, ptr %9) #8
  %14 = getelementptr inbounds nuw %struct.Qureg, ptr %0, i32 0, i32 0
  %15 = load i32, ptr %14, align 8, !tbaa !54
  %16 = icmp ne i32 %15, 0
  br i1 %16, label %17, label %19

17:                                               ; preds = %5
  %18 = call double @densmatr_calcTotalProb(ptr noundef byval(%struct.Qureg) align 8 %4)
  store double %18, ptr %9, align 8, !tbaa !18
  br label %27

19:                                               ; preds = %5
  %20 = call { double, double } @statevec_calcInnerProduct(ptr noundef byval(%struct.Qureg) align 8 %4, ptr noundef byval(%struct.Qureg) align 8 %0)
  %21 = getelementptr inbounds nuw { double, double }, ptr %10, i32 0, i32 0
  %22 = extractvalue { double, double } %20, 0
  store double %22, ptr %21, align 8
  %23 = getelementptr inbounds nuw { double, double }, ptr %10, i32 0, i32 1
  %24 = extractvalue { double, double } %20, 1
  store double %24, ptr %23, align 8
  %25 = getelementptr inbounds nuw %struct.Complex, ptr %10, i32 0, i32 0
  %26 = load double, ptr %25, align 8, !tbaa !19
  store double %26, ptr %9, align 8, !tbaa !18
  br label %27

27:                                               ; preds = %19, %17
  %28 = load double, ptr %9, align 8, !tbaa !18
  call void @llvm.lifetime.end.p0(i64 8, ptr %9) #8
  ret double %28
}