; Function Attrs: nounwind uwtable
define double @statevec_calcExpecPauliProd(ptr noundef readonly byval(%struct.Qureg) align 8 captures(none) %0, ptr noundef readonly captures(none) %1, ptr noundef readonly captures(none) %2, i32 noundef %3, ptr noundef readonly byval(%struct.Qureg) align 8 captures(none) %4) local_unnamed_addr #11 {
  tail call void @statevec_cloneQureg(ptr noundef nonnull byval(%struct.Qureg) align 8 %4, ptr noundef nonnull byval(%struct.Qureg) align 8 %0) #22
  %6 = icmp sgt i32 %3, 0
  br i1 %6, label %.lr.ph.preheader.i, label %statevec_applyPauliProd.exit

.lr.ph.preheader.i:                               ; preds = %5
  %wide.trip.count.i = zext nneg i32 %3 to i64
  br label %.lr.ph.i

.lr.ph.i:                                         ; preds = %25, %.lr.ph.preheader.i
  %indvars.iv.i = phi i64 [ 0, %.lr.ph.preheader.i ], [ %indvars.iv.next.i, %25 ]
  %7 = getelementptr inbounds nuw i32, ptr %2, i64 %indvars.iv.i
  %8 = load i32, ptr %7, align 4, !tbaa !4
  %9 = icmp eq i32 %8, 1
  br i1 %9, label %10, label %13

10:                                               ; preds = %.lr.ph.i
  %11 = getelementptr inbounds nuw i32, ptr %1, i64 %indvars.iv.i
  %12 = load i32, ptr %11, align 4, !tbaa !4
  tail call void @statevec_pauliX(ptr noundef nonnull byval(%struct.Qureg) align 8 %4, i32 noundef %12) #22
  %.pr.i = load i32, ptr %7, align 4, !tbaa !4
  br label %13

13:                                               ; preds = %10, %.lr.ph.i
  %14 = phi i32 [ %.pr.i, %10 ], [ %8, %.lr.ph.i ]
  %15 = icmp eq i32 %14, 2
  br i1 %15, label %16, label %19

16:                                               ; preds = %13
  %17 = getelementptr inbounds nuw i32, ptr %1, i64 %indvars.iv.i
  %18 = load i32, ptr %17, align 4, !tbaa !4
  tail call void @statevec_pauliY(ptr noundef nonnull byval(%struct.Qureg) align 8 %4, i32 noundef %18) #22
  %.pre.i = load i32, ptr %7, align 4, !tbaa !4
  br label %19

19:                                               ; preds = %16, %13
  %20 = phi i32 [ %.pre.i, %16 ], [ %14, %13 ]
  %21 = icmp eq i32 %20, 3
  br i1 %21, label %22, label %25

22:                                               ; preds = %19
  %23 = getelementptr inbounds nuw i32, ptr %1, i64 %indvars.iv.i
  %24 = load i32, ptr %23, align 4, !tbaa !4
  tail call void @statevec_phaseShiftByTerm(ptr noundef nonnull byval(%struct.Qureg) align 8 %4, i32 noundef %24, double -1.000000e+00, double 0.000000e+00) #22
  br label %25

25:                                               ; preds = %22, %19
  %indvars.iv.next.i = add nuw nsw i64 %indvars.iv.i, 1
  %exitcond.not.i = icmp eq i64 %indvars.iv.next.i, %wide.trip.count.i
  br i1 %exitcond.not.i, label %statevec_applyPauliProd.exit, label %.lr.ph.i

statevec_applyPauliProd.exit:                     ; preds = %25, %5
  %26 = load i32, ptr %0, align 8, !tbaa !39
  %.not = icmp eq i32 %26, 0
  br i1 %.not, label %29, label %27

27:                                               ; preds = %statevec_applyPauliProd.exit
  %28 = tail call double @densmatr_calcTotalProb(ptr noundef nonnull byval(%struct.Qureg) align 8 %4) #22
  br label %32

29:                                               ; preds = %statevec_applyPauliProd.exit
  %30 = tail call { double, double } @statevec_calcInnerProduct(ptr noundef nonnull byval(%struct.Qureg) align 8 %4, ptr noundef nonnull byval(%struct.Qureg) align 8 %0) #22
  %31 = extractvalue { double, double } %30, 0
  br label %32

32:                                               ; preds = %29, %27
  %.0 = phi double [ %28, %27 ], [ %31, %29 ]
  ret double %.0
}